target datalayout = "e-m:e-p270:32:32-p271:32:32-p272:64:64-i64:64-i128:128-f80:128-n8:16:32:64-S128"
target triple = "x86_64-pc-linux-gnu"

@.str.15 = private unnamed_addr constant [11 x i8] c"%zu %1023s\00", align 1

; Function Attrs: nounwind uwtable
define i32 @cli_hashtab_load(ptr noundef %0, ptr noundef %1) #0 {
  %3 = alloca ptr, align 8
  %4 = alloca ptr, align 8
  %5 = alloca [1024 x i8], align 16
  %6 = alloca [1024 x i8], align 16
  %7 = alloca i64, align 8
  store ptr %0, ptr %3, align 8
  store ptr %1, ptr %4, align 8
  br label %8

8:                                                ; preds = %13, %2
  %9 = getelementptr inbounds [1024 x i8], ptr %5, i64 0, i64 0
  %10 = load ptr, ptr %3, align 8
  %11 = call ptr @fgets(ptr noundef %9, i32 noundef 1024, ptr noundef %10)
  %12 = icmp ne ptr %11, null
  br i1 %12, label %13, label %23

13:                                               ; preds = %8
  %14 = getelementptr inbounds [1024 x i8], ptr %5, i64 0, i64 0
  %15 = getelementptr inbounds [1024 x i8], ptr %6, i64 0, i64 0
  %16 = call i32 (ptr, ptr, ...) @__isoc99_sscanf(ptr noundef %14, ptr noundef @.str.15, ptr noundef %7, ptr noundef %15) #7
  %17 = load ptr, ptr %4, align 8
  %18 = getelementptr inbounds [1024 x i8], ptr %6, i64 0, i64 0
  %19 = getelementptr inbounds [1024 x i8], ptr %6, i64 0, i64 0
  %20 = call i64 @strlen(ptr noundef %19) #6
  %21 = load i64, ptr %7, align 8
  %22 = call ptr @cli_hashtab_insert(ptr noundef %17, ptr noundef %18, i64 noundef %20, i64 noundef %21)
  br label %8

23:                                               ; preds = %8
  ret i32 0
}