; Function Attrs: nounwind uwtable
define noundef i32 @cli_hashtab_load(ptr nocapture noundef %0, ptr noundef %1) local_unnamed_addr #0 {
  %3 = alloca [1024 x i8], align 16
  %4 = alloca [1024 x i8], align 16
  %5 = alloca i64, align 8
  %6 = call ptr @fgets(ptr noundef nonnull %3, i32 noundef 1024, ptr noundef %0)
  %.not2 = icmp eq ptr %6, null
  br i1 %.not2, label %._crit_edge, label %.lr.ph

.lr.ph:                                           ; preds = %2, %.lr.ph
  %7 = call i32 (ptr, ptr, ...) @__isoc99_sscanf(ptr noundef nonnull %3, ptr noundef nonnull @.str.15, ptr noundef nonnull %5, ptr noundef nonnull %4) #18
  %8 = call i64 @strlen(ptr noundef nonnull dereferenceable(1) %4) #19
  %9 = load i64, ptr %5, align 8
  %10 = call ptr @cli_hashtab_insert(ptr noundef %1, ptr noundef nonnull %4, i64 noundef %8, i64 noundef %9)
  %11 = call ptr @fgets(ptr noundef nonnull %3, i32 noundef 1024, ptr noundef %0)
  %.not = icmp eq ptr %11, null
  br i1 %.not, label %._crit_edge, label %.lr.ph

._crit_edge:                                      ; preds = %.lr.ph, %2
  ret i32 0
}